; Function Attrs: nounwind uwtable
define ptr @Saig_ManRetimeMinAreaBackward(ptr noundef %0, i32 noundef %1) local_unnamed_addr #0 {
  %3 = tail call ptr @Saig_ManGetRegistersToExclude(ptr noundef %0)
  %.not = icmp eq i32 %1, 0
  br i1 %.not, label %8, label %4

4:                                                ; preds = %2
  %5 = getelementptr i8, ptr %3, i64 4
  %.val39 = load i32, ptr %5, align 4
  %.not35 = icmp eq i32 %.val39, 0
  br i1 %.not35, label %8, label %6

6:                                                ; preds = %4
  %7 = tail call i32 (ptr, ...) @printf(ptr noundef nonnull dereferenceable(1) @.str.5, i32 noundef %.val39)
  br label %8

8:                                                ; preds = %6, %4, %2
  %9 = getelementptr i8, ptr %0, i64 104
  %10 = getelementptr i8, ptr %0, i64 112
  %11 = getelementptr i8, ptr %0, i64 24
  br label %12

12:                                               ; preds = %Vec_PtrPush.exit, %8
  %.033 = phi ptr [ %3, %8 ], [ %41, %Vec_PtrPush.exit ]
  %13 = tail call i32 @Saig_ManHideBadRegs(ptr noundef %0, ptr noundef %.033)
  %14 = getelementptr inbounds nuw i8, ptr %.033, i64 8
  %15 = load ptr, ptr %14, align 8
  %.not.i = icmp eq ptr %15, null
  br i1 %.not.i, label %Vec_PtrFree.exit, label %16

16:                                               ; preds = %12
  tail call void @free(ptr noundef nonnull %15) #13
  br label %Vec_PtrFree.exit

Vec_PtrFree.exit:                                 ; preds = %12, %16
  tail call void @free(ptr noundef nonnull %.033) #13
  %17 = tail call ptr @Nwk_ManDeriveRetimingCut(ptr noundef %0, i32 noundef 0, i32 noundef %1) #13
  %18 = getelementptr i8, ptr %17, i64 4
  %.val = load i32, ptr %18, align 4
  %.val41 = load i32, ptr %9, align 8
  %.not36 = icmp slt i32 %.val, %.val41
  br i1 %.not36, label %23, label %19

19:                                               ; preds = %Vec_PtrFree.exit
  %20 = getelementptr inbounds nuw i8, ptr %17, i64 8
  %21 = load ptr, ptr %20, align 8
  %.not.i43 = icmp eq ptr %21, null
  br i1 %.not.i43, label %Vec_PtrFree.exit44, label %22

22:                                               ; preds = %19
  tail call void @free(ptr noundef nonnull %21) #13
  br label %Vec_PtrFree.exit44

Vec_PtrFree.exit44:                               ; preds = %19, %22
  tail call void @free(ptr noundef nonnull %17) #13
  br label %50

23:                                               ; preds = %Vec_PtrFree.exit
  %24 = tail call ptr @Saig_ManRetimeDupInitState(ptr noundef nonnull %0, ptr noundef nonnull %17)
  %25 = tail call ptr @Saig_ManRetimeInitState(ptr noundef %24)
  %.not37 = icmp eq ptr %25, null
  br i1 %.not37, label %34, label %26

26:                                               ; preds = %23
  %27 = tail call ptr @Saig_ManRetimeDupBackward(ptr noundef nonnull %0, ptr noundef nonnull %17, ptr noundef nonnull %25)
  %28 = getelementptr inbounds nuw i8, ptr %25, i64 8
  %29 = load ptr, ptr %28, align 8
  %.not.i45 = icmp eq ptr %29, null
  br i1 %.not.i45, label %Vec_IntFree.exit, label %30

30:                                               ; preds = %26
  tail call void @free(ptr noundef nonnull %29) #13
  br label %Vec_IntFree.exit

Vec_IntFree.exit:                                 ; preds = %26, %30
  tail call void @free(ptr noundef nonnull %25) #13
  %31 = getelementptr inbounds nuw i8, ptr %17, i64 8
  %32 = load ptr, ptr %31, align 8
  %.not.i46 = icmp eq ptr %32, null
  br i1 %.not.i46, label %Vec_PtrFree.exit47, label %33

33:                                               ; preds = %Vec_IntFree.exit
  tail call void @free(ptr noundef nonnull %32) #13
  br label %Vec_PtrFree.exit47

Vec_PtrFree.exit47:                               ; preds = %Vec_IntFree.exit, %33
  tail call void @free(ptr noundef nonnull %17) #13
  tail call void @Aig_ManStop(ptr noundef %24) #13
  br label %50

34:                                               ; preds = %23
  %35 = getelementptr inbounds nuw i8, ptr %17, i64 8
  %36 = load ptr, ptr %35, align 8
  %.not.i48 = icmp eq ptr %36, null
  br i1 %.not.i48, label %Vec_PtrFree.exit49, label %37

37:                                               ; preds = %34
  tail call void @free(ptr noundef nonnull %36) #13
  br label %Vec_PtrFree.exit49

Vec_PtrFree.exit49:                               ; preds = %34, %37
  tail call void @free(ptr noundef nonnull %17) #13
  %38 = tail call i32 @Saig_ManRetimeUnsatCore(ptr noundef %24, i32 noundef %1)
  tail call void @Aig_ManStop(ptr noundef %24) #13
  br i1 %.not, label %Vec_PtrPush.exit, label %39

39:                                               ; preds = %Vec_PtrFree.exit49
  %40 = tail call i32 (ptr, ...) @printf(ptr noundef nonnull dereferenceable(1) @.str.6, i32 noundef %38)
  br label %Vec_PtrPush.exit

Vec_PtrPush.exit:                                 ; preds = %39, %Vec_PtrFree.exit49
  %41 = tail call noalias dereferenceable_or_null(16) ptr @malloc(i64 noundef 16) #14
  %42 = getelementptr inbounds nuw i8, ptr %41, i64 4
  store i32 8, ptr %41, align 8
  %43 = tail call noalias dereferenceable_or_null(64) ptr @malloc(i64 noundef 64) #14
  %44 = getelementptr inbounds nuw i8, ptr %41, i64 8
  store ptr %43, ptr %44, align 8
  %.val40 = load i32, ptr %10, align 8
  %45 = add nsw i32 %.val40, %38
  %.val42 = load ptr, ptr %11, align 8
  %46 = getelementptr i8, ptr %.val42, i64 8
  %.val42.val = load ptr, ptr %46, align 8
  %47 = sext i32 %45 to i64
  %48 = getelementptr inbounds ptr, ptr %.val42.val, i64 %47
  %49 = load ptr, ptr %48, align 8
  store i32 1, ptr %42, align 4
  store ptr %49, ptr %43, align 8
  br label %12

50:                                               ; preds = %Vec_PtrFree.exit47, %Vec_PtrFree.exit44
  %.0 = phi ptr [ null, %Vec_PtrFree.exit44 ], [ %27, %Vec_PtrFree.exit47 ]
  ret ptr %.0
}